target datalayout = "e-m:e-p270:32:32-p271:32:32-p272:64:64-i64:64-i128:128-f80:128-n8:16:32:64-S128"
target triple = "x86_64-pc-linux-gnu"

%struct._lv_obj_t = type { ptr, ptr, ptr, ptr, ptr, %struct.lv_area_t, i32, i16, i16 }
%struct.lv_area_t = type { i32, i32, i32, i32 }
%struct._lv_obj_spec_attr_t = type { ptr, ptr, %struct.lv_event_list_t, %struct.lv_point_t, i32, i32, i16, i16 }
%struct.lv_event_list_t = type { %struct._lv_array_t, i8 }
%struct._lv_array_t = type { ptr, i32, i32, i32, i8 }
%struct.lv_point_t = type { i32, i32 }

; Function Attrs: nounwind uwtable
define void @lv_obj_set_scroll_dir(ptr noundef %0, i32 noundef %1) #0 {
  %3 = alloca ptr, align 8
  %4 = alloca i32, align 4
  store ptr %0, ptr %3, align 8, !tbaa !3
  store i32 %1, ptr %4, align 4, !tbaa !7
  %5 = load ptr, ptr %3, align 8, !tbaa !3
  call void @lv_obj_allocate_spec_attr(ptr noundef %5)
  %6 = load i32, ptr %4, align 4, !tbaa !7
  %7 = load ptr, ptr %3, align 8, !tbaa !3
  %8 = getelementptr inbounds nuw %struct._lv_obj_t, ptr %7, i32 0, i32 2
  %9 = load ptr, ptr %8, align 8, !tbaa !9
  %10 = getelementptr inbounds nuw %struct._lv_obj_spec_attr_t, ptr %9, i32 0, i32 7
  %11 = load i16, ptr %10, align 2
  %12 = lshr i16 %11, 6
  %13 = and i16 %12, 15
  %14 = zext i16 %13 to i32
  %15 = icmp ne i32 %6, %14
  br i1 %15, label %16, label %28

16:                                               ; preds = %2
  %17 = load i32, ptr %4, align 4, !tbaa !7
  %18 = trunc i32 %17 to i16
  %19 = load ptr, ptr %3, align 8, !tbaa !3
  %20 = getelementptr inbounds nuw %struct._lv_obj_t, ptr %19, i32 0, i32 2
  %21 = load ptr, ptr %20, align 8, !tbaa !9
  %22 = getelementptr inbounds nuw %struct._lv_obj_spec_attr_t, ptr %21, i32 0, i32 7
  %23 = load i16, ptr %22, align 2
  %24 = and i16 %18, 15
  %25 = shl i16 %24, 6
  %26 = and i16 %23, -961
  %27 = or i16 %26, %25
  store i16 %27, ptr %22, align 2
  br label %28

28:                                               ; preds = %16, %2
  ret void
}