; Function Attrs: nounwind uwtable
define void @lv_obj_set_scroll_dir(ptr noundef %0, i32 noundef %1) local_unnamed_addr #0 {
  tail call void @lv_obj_allocate_spec_attr(ptr noundef %0) #5
  %3 = getelementptr inbounds nuw i8, ptr %0, i64 16
  %4 = load ptr, ptr %3, align 8, !tbaa !3
  %5 = getelementptr inbounds nuw i8, ptr %4, i64 66
  %6 = load i16, ptr %5, align 2
  %7 = lshr i16 %6, 6
  %8 = and i16 %7, 15
  %9 = zext nneg i16 %8 to i32
  %.not = icmp eq i32 %1, %9
  br i1 %.not, label %16, label %10

10:                                               ; preds = %2
  %11 = trunc i32 %1 to i16
  %12 = shl i16 %11, 6
  %13 = and i16 %12, 960
  %14 = and i16 %6, -961
  %15 = or disjoint i16 %14, %13
  store i16 %15, ptr %5, align 2
  br label %16

16:                                               ; preds = %10, %2
  ret void
}